target datalayout = "e-m:e-p270:32:32-p271:32:32-p272:64:64-i64:64-i128:128-f80:128-n8:16:32:64-S128"
target triple = "x86_64-unknown-linux-gnu"

%class.b3Vector3 = type { %union.anon }
%union.anon = type { [4 x float] }
%struct.b3RigidBodyData = type { %class.b3Vector3, %class.b3Quaternion, %class.b3Vector3, %class.b3Vector3, i32, float, float, float }
%class.b3Quaternion = type { %class.b3QuadWord }
%class.b3QuadWord = type { %union.anon.45 }
%union.anon.45 = type { [4 x float] }
%struct.b3GpuSolverBody = type { %class.b3Vector3, %class.b3Vector3, %class.b3Vector3, %class.b3Vector3, %class.b3Vector3, %class.b3Vector3, %class.b3Vector3, %class.b3Vector3, %class.b3Vector3, %union.anon.34, [3 x i32], [12 x i8] }
%union.anon.34 = type { ptr }

; Function Attrs: mustprogress nounwind uwtable
define internal noundef nonnull align 16 dereferenceable(16) ptr @_ZL18getAngularVelocityP15b3RigidBodyData(ptr noundef %rb) #1 {
entry:
  %rb.addr = alloca ptr, align 8
  store ptr %rb, ptr %rb.addr, align 8
  %0 = load ptr, ptr %rb.addr, align 8
  %m_angVel = getelementptr inbounds %struct.b3RigidBodyData, ptr %0, i32 0, i32 3
  ret ptr %m_angVel
}

; Function Attrs: mustprogress nounwind uwtable
define internal noundef nonnull align 16 dereferenceable(16) ptr @_ZL17getLinearVelocityP15b3RigidBodyData(ptr noundef %rb) #1 {
entry:
  %rb.addr = alloca ptr, align 8
  store ptr %rb, ptr %rb.addr, align 8
  %0 = load ptr, ptr %rb.addr, align 8
  %m_linVel = getelementptr inbounds %struct.b3RigidBodyData, ptr %0, i32 0, i32 2
  ret ptr %m_linVel
}

; Function Attrs: mustprogress nounwind uwtable
define linkonce_odr dso_local void @_ZN15b3GpuSolverBody18internalSetInvMassERK9b3Vector3(ptr noundef nonnull align 16 dereferenceable(176) %this, ptr noundef nonnull align 16 dereferenceable(16) %invMass) #1 comdat align 2 {
entry:
  %this.addr = alloca ptr, align 8
  %invMass.addr = alloca ptr, align 8
  store ptr %this, ptr %this.addr, align 8
  store ptr %invMass, ptr %invMass.addr, align 8
  %this1 = load ptr, ptr %this.addr, align 8
  %0 = load ptr, ptr %invMass.addr, align 8
  %m_invMass = getelementptr inbounds %struct.b3GpuSolverBody, ptr %this1, i32 0, i32 4
  call void @llvm.memcpy.p0.p0.i64(ptr align 16 %m_invMass, ptr align 16 %0, i64 16, i1 false)
  ret void
}

; Function Attrs: mustprogress nounwind uwtable
define linkonce_odr dso_local { <2 x float>, <2 x float> } @_Z13b3MakeVector3fff(float noundef %x, float noundef %y, float noundef %z) #1 comdat {
entry:
  %retval = alloca %class.b3Vector3, align 16
  %x.addr = alloca float, align 4
  %y.addr = alloca float, align 4
  %z.addr = alloca float, align 4
  store float %x, ptr %x.addr, align 4
  store float %y, ptr %y.addr, align 4
  store float %z, ptr %z.addr, align 4
  call void @_ZN9b3Vector38setValueERKfS1_S1_(ptr noundef nonnull align 16 dereferenceable(16) %retval, ptr noundef nonnull align 4 dereferenceable(4) %x.addr, ptr noundef nonnull align 4 dereferenceable(4) %y.addr, ptr noundef nonnull align 4 dereferenceable(4) %z.addr)
  %coerce.dive = getelementptr inbounds %class.b3Vector3, ptr %retval, i32 0, i32 0
  %coerce.dive1 = getelementptr inbounds %union.anon, ptr %coerce.dive, i32 0, i32 0
  %0 = load { <2 x float>, <2 x float> }, ptr %coerce.dive1, align 16
  ret { <2 x float>, <2 x float> } %0
}

; Function Attrs: mustprogress nounwind uwtable
define linkonce_odr dso_local noundef nonnull align 16 dereferenceable(16) ptr @_ZN15b3GpuSolverBody23internalGetTurnVelocityEv(ptr noundef nonnull align 16 dereferenceable(176) %this) #1 comdat align 2 {
entry:
  %this.addr = alloca ptr, align 8
  store ptr %this, ptr %this.addr, align 8
  %this1 = load ptr, ptr %this.addr, align 8
  %m_turnVelocity = getelementptr inbounds %struct.b3GpuSolverBody, ptr %this1, i32 0, i32 6
  ret ptr %m_turnVelocity
}

; Function Attrs: mustprogress nounwind uwtable
define linkonce_odr dso_local noundef nonnull align 16 dereferenceable(16) ptr @_ZN15b3GpuSolverBody23internalGetPushVelocityEv(ptr noundef nonnull align 16 dereferenceable(176) %this) #1 comdat align 2 {
entry:
  %this.addr = alloca ptr, align 8
  store ptr %this, ptr %this.addr, align 8
  %this1 = load ptr, ptr %this.addr, align 8
  %m_pushVelocity = getelementptr inbounds %struct.b3GpuSolverBody, ptr %this1, i32 0, i32 5
  ret ptr %m_pushVelocity
}

; Function Attrs: mustprogress nounwind uwtable
define linkonce_odr dso_local void @_ZN9b3Vector38setValueERKfS1_S1_(ptr noundef nonnull align 16 dereferenceable(16) %this, ptr noundef nonnull align 4 dereferenceable(4) %_x, ptr noundef nonnull align 4 dereferenceable(4) %_y, ptr noundef nonnull align 4 dereferenceable(4) %_z) #1 comdat align 2 {
entry:
  %this.addr = alloca ptr, align 8
  %_x.addr = alloca ptr, align 8
  %_y.addr = alloca ptr, align 8
  %_z.addr = alloca ptr, align 8
  store ptr %this, ptr %this.addr, align 8
  store ptr %_x, ptr %_x.addr, align 8
  store ptr %_y, ptr %_y.addr, align 8
  store ptr %_z, ptr %_z.addr, align 8
  %this1 = load ptr, ptr %this.addr, align 8
  %0 = load ptr, ptr %_x.addr, align 8
  %1 = load float, ptr %0, align 4
  %2 = getelementptr inbounds %class.b3Vector3, ptr %this1, i32 0, i32 0
  %arrayidx = getelementptr inbounds [4 x float], ptr %2, i64 0, i64 0
  store float %1, ptr %arrayidx, align 16
  %3 = load ptr, ptr %_y.addr, align 8
  %4 = load float, ptr %3, align 4
  %5 = getelementptr inbounds %class.b3Vector3, ptr %this1, i32 0, i32 0
  %arrayidx2 = getelementptr inbounds [4 x float], ptr %5, i64 0, i64 1
  store float %4, ptr %arrayidx2, align 4
  %6 = load ptr, ptr %_z.addr, align 8
  %7 = load float, ptr %6, align 4
  %8 = getelementptr inbounds %class.b3Vector3, ptr %this1, i32 0, i32 0
  %arrayidx3 = getelementptr inbounds [4 x float], ptr %8, i64 0, i64 2
  store float %7, ptr %arrayidx3, align 8
  %9 = getelementptr inbounds %class.b3Vector3, ptr %this1, i32 0, i32 0
  %arrayidx4 = getelementptr inbounds [4 x float], ptr %9, i64 0, i64 3
  store float 0.000000e+00, ptr %arrayidx4, align 4
  ret void
}

; Function Attrs: mustprogress uwtable
define dso_local void @_ZN24b3GpuPgsConstraintSolver14initSolverBodyEiP15b3GpuSolverBodyP15b3RigidBodyData(ptr noundef nonnull align 8 dereferenceable(228) %this, i32 noundef %bodyIndex, ptr noundef %solverBody, ptr noundef %rb) #0 align 2 {
entry:
  %this.addr = alloca ptr, align 8
  %bodyIndex.addr = alloca i32, align 4
  %solverBody.addr = alloca ptr, align 8
  %rb.addr = alloca ptr, align 8
  %ref.tmp = alloca float, align 4
  %ref.tmp2 = alloca float, align 4
  %ref.tmp3 = alloca float, align 4
  %ref.tmp4 = alloca float, align 4
  %ref.tmp5 = alloca float, align 4
  %ref.tmp6 = alloca float, align 4
  %ref.tmp7 = alloca float, align 4
  %ref.tmp8 = alloca float, align 4
  %ref.tmp9 = alloca float, align 4
  %ref.tmp11 = alloca float, align 4
  %ref.tmp12 = alloca float, align 4
  %ref.tmp13 = alloca float, align 4
  %ref.tmp14 = alloca %class.b3Vector3, align 16
  %ref.tmp19 = alloca %class.b3Vector3, align 16
  %ref.tmp23 = alloca %class.b3Vector3, align 16
  store ptr %this, ptr %this.addr, align 8
  store i32 %bodyIndex, ptr %bodyIndex.addr, align 4
  store ptr %solverBody, ptr %solverBody.addr, align 8
  store ptr %rb, ptr %rb.addr, align 8
  %0 = load ptr, ptr %solverBody.addr, align 8
  %m_deltaLinearVelocity = getelementptr inbounds %struct.b3GpuSolverBody, ptr %0, i32 0, i32 0
  store float 0.000000e+00, ptr %ref.tmp, align 4
  store float 0.000000e+00, ptr %ref.tmp2, align 4
  store float 0.000000e+00, ptr %ref.tmp3, align 4
  call void @_ZN9b3Vector38setValueERKfS1_S1_(ptr noundef nonnull align 16 dereferenceable(16) %m_deltaLinearVelocity, ptr noundef nonnull align 4 dereferenceable(4) %ref.tmp, ptr noundef nonnull align 4 dereferenceable(4) %ref.tmp2, ptr noundef nonnull align 4 dereferenceable(4) %ref.tmp3)
  %1 = load ptr, ptr %solverBody.addr, align 8
  %m_deltaAngularVelocity = getelementptr inbounds %struct.b3GpuSolverBody, ptr %1, i32 0, i32 1
  store float 0.000000e+00, ptr %ref.tmp4, align 4
  store float 0.000000e+00, ptr %ref.tmp5, align 4
  store float 0.000000e+00, ptr %ref.tmp6, align 4
  call void @_ZN9b3Vector38setValueERKfS1_S1_(ptr noundef nonnull align 16 dereferenceable(16) %m_deltaAngularVelocity, ptr noundef nonnull align 4 dereferenceable(4) %ref.tmp4, ptr noundef nonnull align 4 dereferenceable(4) %ref.tmp5, ptr noundef nonnull align 4 dereferenceable(4) %ref.tmp6)
  %2 = load ptr, ptr %solverBody.addr, align 8
  %call = call noundef nonnull align 16 dereferenceable(16) ptr @_ZN15b3GpuSolverBody23internalGetPushVelocityEv(ptr noundef nonnull align 16 dereferenceable(176) %2)
  store float 0.000000e+00, ptr %ref.tmp7, align 4
  store float 0.000000e+00, ptr %ref.tmp8, align 4
  store float 0.000000e+00, ptr %ref.tmp9, align 4
  call void @_ZN9b3Vector38setValueERKfS1_S1_(ptr noundef nonnull align 16 dereferenceable(16) %call, ptr noundef nonnull align 4 dereferenceable(4) %ref.tmp7, ptr noundef nonnull align 4 dereferenceable(4) %ref.tmp8, ptr noundef nonnull align 4 dereferenceable(4) %ref.tmp9)
  %3 = load ptr, ptr %solverBody.addr, align 8
  %call10 = call noundef nonnull align 16 dereferenceable(16) ptr @_ZN15b3GpuSolverBody23internalGetTurnVelocityEv(ptr noundef nonnull align 16 dereferenceable(176) %3)
  store float 0.000000e+00, ptr %ref.tmp11, align 4
  store float 0.000000e+00, ptr %ref.tmp12, align 4
  store float 0.000000e+00, ptr %ref.tmp13, align 4
  call void @_ZN9b3Vector38setValueERKfS1_S1_(ptr noundef nonnull align 16 dereferenceable(16) %call10, ptr noundef nonnull align 4 dereferenceable(4) %ref.tmp11, ptr noundef nonnull align 4 dereferenceable(4) %ref.tmp12, ptr noundef nonnull align 4 dereferenceable(4) %ref.tmp13)
  %4 = load ptr, ptr %solverBody.addr, align 8
  %5 = load ptr, ptr %rb.addr, align 8
  %m_invMass = getelementptr inbounds %struct.b3RigidBodyData, ptr %5, i32 0, i32 5
  %6 = load float, ptr %m_invMass, align 4
  %7 = load ptr, ptr %rb.addr, align 8
  %m_invMass15 = getelementptr inbounds %struct.b3RigidBodyData, ptr %7, i32 0, i32 5
  %8 = load float, ptr %m_invMass15, align 4
  %9 = load ptr, ptr %rb.addr, align 8
  %m_invMass16 = getelementptr inbounds %struct.b3RigidBodyData, ptr %9, i32 0, i32 5
  %10 = load float, ptr %m_invMass16, align 4
  %call17 = call { <2 x float>, <2 x float> } @_Z13b3MakeVector3fff(float noundef %6, float noundef %8, float noundef %10)
  %coerce.dive = getelementptr inbounds %class.b3Vector3, ptr %ref.tmp14, i32 0, i32 0
  %coerce.dive18 = getelementptr inbounds %union.anon, ptr %coerce.dive, i32 0, i32 0
  %11 = getelementptr inbounds { <2 x float>, <2 x float> }, ptr %coerce.dive18, i32 0, i32 0
  %12 = extractvalue { <2 x float>, <2 x float> } %call17, 0
  store <2 x float> %12, ptr %11, align 16
  %13 = getelementptr inbounds { <2 x float>, <2 x float> }, ptr %coerce.dive18, i32 0, i32 1
  %14 = extractvalue { <2 x float>, <2 x float> } %call17, 1
  store <2 x float> %14, ptr %13, align 8
  call void @_ZN15b3GpuSolverBody18internalSetInvMassERK9b3Vector3(ptr noundef nonnull align 16 dereferenceable(176) %4, ptr noundef nonnull align 16 dereferenceable(16) %ref.tmp14)
  %15 = load i32, ptr %bodyIndex.addr, align 4
  %16 = load ptr, ptr %solverBody.addr, align 8
  %17 = getelementptr inbounds %struct.b3GpuSolverBody, ptr %16, i32 0, i32 9
  store i32 %15, ptr %17, align 16
  %call20 = call { <2 x float>, <2 x float> } @_Z13b3MakeVector3fff(float noundef 1.000000e+00, float noundef 1.000000e+00, float noundef 1.000000e+00)
  %coerce.dive21 = getelementptr inbounds %class.b3Vector3, ptr %ref.tmp19, i32 0, i32 0
  %coerce.dive22 = getelementptr inbounds %union.anon, ptr %coerce.dive21, i32 0, i32 0
  %18 = getelementptr inbounds { <2 x float>, <2 x float> }, ptr %coerce.dive22, i32 0, i32 0
  %19 = extractvalue { <2 x float>, <2 x float> } %call20, 0
  store <2 x float> %19, ptr %18, align 16
  %20 = getelementptr inbounds { <2 x float>, <2 x float> }, ptr %coerce.dive22, i32 0, i32 1
  %21 = extractvalue { <2 x float>, <2 x float> } %call20, 1
  store <2 x float> %21, ptr %20, align 8
  %22 = load ptr, ptr %solverBody.addr, align 8
  %m_angularFactor = getelementptr inbounds %struct.b3GpuSolverBody, ptr %22, i32 0, i32 2
  call void @llvm.memcpy.p0.p0.i64(ptr align 16 %m_angularFactor, ptr align 16 %ref.tmp19, i64 16, i1 false)
  %call24 = call { <2 x float>, <2 x float> } @_Z13b3MakeVector3fff(float noundef 1.000000e+00, float noundef 1.000000e+00, float noundef 1.000000e+00)
  %coerce.dive25 = getelementptr inbounds %class.b3Vector3, ptr %ref.tmp23, i32 0, i32 0
  %coerce.dive26 = getelementptr inbounds %union.anon, ptr %coerce.dive25, i32 0, i32 0
  %23 = getelementptr inbounds { <2 x float>, <2 x float> }, ptr %coerce.dive26, i32 0, i32 0
  %24 = extractvalue { <2 x float>, <2 x float> } %call24, 0
  store <2 x float> %24, ptr %23, align 16
  %25 = getelementptr inbounds { <2 x float>, <2 x float> }, ptr %coerce.dive26, i32 0, i32 1
  %26 = extractvalue { <2 x float>, <2 x float> } %call24, 1
  store <2 x float> %26, ptr %25, align 8
  %27 = load ptr, ptr %solverBody.addr, align 8
  %m_linearFactor = getelementptr inbounds %struct.b3GpuSolverBody, ptr %27, i32 0, i32 3
  call void @llvm.memcpy.p0.p0.i64(ptr align 16 %m_linearFactor, ptr align 16 %ref.tmp23, i64 16, i1 false)
  %28 = load ptr, ptr %rb.addr, align 8
  %call27 = call noundef nonnull align 16 dereferenceable(16) ptr @_ZL17getLinearVelocityP15b3RigidBodyData(ptr noundef %28)
  %29 = load ptr, ptr %solverBody.addr, align 8
  %m_linearVelocity = getelementptr inbounds %struct.b3GpuSolverBody, ptr %29, i32 0, i32 7
  call void @llvm.memcpy.p0.p0.i64(ptr align 16 %m_linearVelocity, ptr align 16 %call27, i64 16, i1 false)
  %30 = load ptr, ptr %rb.addr, align 8
  %call28 = call noundef nonnull align 16 dereferenceable(16) ptr @_ZL18getAngularVelocityP15b3RigidBodyData(ptr noundef %30)
  %31 = load ptr, ptr %solverBody.addr, align 8
  %m_angularVelocity = getelementptr inbounds %struct.b3GpuSolverBody, ptr %31, i32 0, i32 8
  call void @llvm.memcpy.p0.p0.i64(ptr align 16 %m_angularVelocity, ptr align 16 %call28, i64 16, i1 false)
  ret void
}