; Function Attrs: mustprogress nofree norecurse nosync nounwind willreturn memory(argmem: readwrite) uwtable
define dso_local void @_ZN24b3GpuPgsConstraintSolver14initSolverBodyEiP15b3GpuSolverBodyP15b3RigidBodyData(ptr nocapture noundef nonnull readnone align 8 dereferenceable(228) %this, i32 noundef %bodyIndex, ptr nocapture noundef writeonly %solverBody, ptr nocapture noundef readonly %rb) local_unnamed_addr #11 align 2 {
entry:
  %m_pushVelocity.i = getelementptr inbounds i8, ptr %solverBody, i64 80
  %m_invMass = getelementptr inbounds i8, ptr %rb, i64 68
  tail call void @llvm.memset.p0.i64(ptr noundef nonnull align 16 dereferenceable(32) %solverBody, i8 0, i64 32, i1 false)
  tail call void @llvm.memset.p0.i64(ptr noundef nonnull align 16 dereferenceable(32) %m_pushVelocity.i, i8 0, i64 32, i1 false)
  %0 = load float, ptr %m_invMass, align 4
  %retval.sroa.0.0.vec.insert.i = insertelement <2 x float> poison, float %0, i64 0
  %retval.sroa.0.4.vec.insert.i = shufflevector <2 x float> %retval.sroa.0.0.vec.insert.i, <2 x float> poison, <2 x i32> zeroinitializer
  %retval.sroa.3.12.vec.insert.i = insertelement <2 x float> <float poison, float 0.000000e+00>, float %0, i64 0
  %m_invMass.i = getelementptr inbounds i8, ptr %solverBody, i64 64
  store <2 x float> %retval.sroa.0.4.vec.insert.i, ptr %m_invMass.i, align 16
  %ref.tmp14.sroa.2.0.m_invMass.i.sroa_idx = getelementptr inbounds i8, ptr %solverBody, i64 72
  store <2 x float> %retval.sroa.3.12.vec.insert.i, ptr %ref.tmp14.sroa.2.0.m_invMass.i.sroa_idx, align 8
  %1 = getelementptr inbounds i8, ptr %solverBody, i64 144
  store i32 %bodyIndex, ptr %1, align 16
  %m_angularFactor = getelementptr inbounds i8, ptr %solverBody, i64 32
  store <2 x float> <float 1.000000e+00, float 1.000000e+00>, ptr %m_angularFactor, align 16
  %ref.tmp19.sroa.2.0.m_angularFactor.sroa_idx = getelementptr inbounds i8, ptr %solverBody, i64 40
  store <2 x float> <float 1.000000e+00, float 0.000000e+00>, ptr %ref.tmp19.sroa.2.0.m_angularFactor.sroa_idx, align 8
  %m_linearFactor = getelementptr inbounds i8, ptr %solverBody, i64 48
  store <2 x float> <float 1.000000e+00, float 1.000000e+00>, ptr %m_linearFactor, align 16
  %ref.tmp23.sroa.2.0.m_linearFactor.sroa_idx = getelementptr inbounds i8, ptr %solverBody, i64 56
  store <2 x float> <float 1.000000e+00, float 0.000000e+00>, ptr %ref.tmp23.sroa.2.0.m_linearFactor.sroa_idx, align 8
  %m_linVel.i = getelementptr inbounds i8, ptr %rb, i64 32
  %m_linearVelocity = getelementptr inbounds i8, ptr %solverBody, i64 112
  tail call void @llvm.memcpy.p0.p0.i64(ptr noundef nonnull align 16 dereferenceable(16) %m_linearVelocity, ptr noundef nonnull align 16 dereferenceable(16) %m_linVel.i, i64 16, i1 false)
  %m_angVel.i = getelementptr inbounds i8, ptr %rb, i64 48
  %m_angularVelocity = getelementptr inbounds i8, ptr %solverBody, i64 128
  tail call void @llvm.memcpy.p0.p0.i64(ptr noundef nonnull align 16 dereferenceable(16) %m_angularVelocity, ptr noundef nonnull align 16 dereferenceable(16) %m_angVel.i, i64 16, i1 false)
  ret void
}